target datalayout = "e-m:e-p270:32:32-p271:32:32-p272:64:64-i64:64-i128:128-f80:128-n8:16:32:64-S128"
target triple = "x86_64-pc-linux-gnu"

; Function Attrs: inlinehint mustprogress nounwind uwtable
define internal noundef signext i8 @_ZL9U_FAILURE10UErrorCode(i32 noundef %0) #2 {
  %2 = alloca i32, align 4
  store i32 %0, ptr %2, align 4, !tbaa !15
  %3 = load i32, ptr %2, align 4, !tbaa !15
  %4 = icmp sgt i32 %3, 0
  %5 = zext i1 %4 to i8
  ret i8 %5
}

; Function Attrs: mustprogress uwtable
define noundef i32 @_ZN6icu_776number4impl12RoundingImpl24chooseMultiplierAndApplyERNS1_15DecimalQuantityERKNS1_18MultiplierProducerER10UErrorCode(ptr noundef nonnull align 8 dereferenceable(37) %0, ptr noundef nonnull align 8 dereferenceable(66) %1, ptr noundef nonnull align 8 dereferenceable(8) %2, ptr noundef nonnull align 4 dereferenceable(4) %3) #1 align 2 {
  %5 = alloca i32, align 4
  %6 = alloca ptr, align 8
  %7 = alloca ptr, align 8
  %8 = alloca ptr, align 8
  %9 = alloca ptr, align 8
  %10 = alloca i32, align 4
  %11 = alloca i32, align 4
  %12 = alloca i32, align 4
  %13 = alloca i32, align 4
  store ptr %0, ptr %6, align 8, !tbaa !93
  store ptr %1, ptr %7, align 8, !tbaa !101
  store ptr %2, ptr %8, align 8, !tbaa !50
  store ptr %3, ptr %9, align 8, !tbaa !22
  %14 = load ptr, ptr %6, align 8
  call void @llvm.lifetime.start.p0(i64 4, ptr %10) #13
  %15 = load ptr, ptr %7, align 8, !tbaa !101
  %16 = call noundef i32 @_ZNK6icu_776number4impl15DecimalQuantity12getMagnitudeEv(ptr noundef nonnull align 8 dereferenceable(66) %15)
  store i32 %16, ptr %10, align 4, !tbaa !14
  call void @llvm.lifetime.start.p0(i64 4, ptr %11) #13
  %17 = load ptr, ptr %8, align 8, !tbaa !50
  %18 = load i32, ptr %10, align 4, !tbaa !14
  %19 = load ptr, ptr %17, align 8, !tbaa !103
  %20 = getelementptr inbounds ptr, ptr %19, i64 2
  %21 = load ptr, ptr %20, align 8
  %22 = call noundef i32 %21(ptr noundef nonnull align 8 dereferenceable(8) %17, i32 noundef %18)
  store i32 %22, ptr %11, align 4, !tbaa !14
  %23 = load ptr, ptr %7, align 8, !tbaa !101
  %24 = load i32, ptr %11, align 4, !tbaa !14
  %25 = call noundef zeroext i1 @_ZN6icu_776number4impl15DecimalQuantity15adjustMagnitudeEi(ptr noundef nonnull align 8 dereferenceable(66) %23, i32 noundef %24)
  %26 = load ptr, ptr %7, align 8, !tbaa !101
  %27 = load ptr, ptr %9, align 8, !tbaa !22
  call void @_ZNK6icu_776number4impl12RoundingImpl5applyERNS1_15DecimalQuantityER10UErrorCode(ptr noundef nonnull align 8 dereferenceable(37) %14, ptr noundef nonnull align 8 dereferenceable(66) %26, ptr noundef nonnull align 4 dereferenceable(4) %27)
  %28 = load ptr, ptr %7, align 8, !tbaa !101
  %29 = call noundef zeroext i1 @_ZNK6icu_776number4impl15DecimalQuantity9isZeroishEv(ptr noundef nonnull align 8 dereferenceable(66) %28)
  br i1 %29, label %35, label %30

30:                                               ; preds = %4
  %31 = load ptr, ptr %9, align 8, !tbaa !22
  %32 = load i32, ptr %31, align 4, !tbaa !15
  %33 = call noundef signext i8 @_ZL9U_FAILURE10UErrorCode(i32 noundef %32)
  %34 = icmp ne i8 %33, 0
  br i1 %34, label %35, label %37

35:                                               ; preds = %30, %4
  %36 = load i32, ptr %11, align 4, !tbaa !14
  store i32 %36, ptr %5, align 4
  store i32 1, ptr %12, align 4
  br label %69

37:                                               ; preds = %30
  %38 = load ptr, ptr %7, align 8, !tbaa !101
  %39 = call noundef i32 @_ZNK6icu_776number4impl15DecimalQuantity12getMagnitudeEv(ptr noundef nonnull align 8 dereferenceable(66) %38)
  %40 = load i32, ptr %10, align 4, !tbaa !14
  %41 = load i32, ptr %11, align 4, !tbaa !14
  %42 = add nsw i32 %40, %41
  %43 = icmp eq i32 %39, %42
  br i1 %43, label %44, label %46

44:                                               ; preds = %37
  %45 = load i32, ptr %11, align 4, !tbaa !14
  store i32 %45, ptr %5, align 4
  store i32 1, ptr %12, align 4
  br label %69

46:                                               ; preds = %37
  call void @llvm.lifetime.start.p0(i64 4, ptr %13) #13
  %47 = load ptr, ptr %8, align 8, !tbaa !50
  %48 = load i32, ptr %10, align 4, !tbaa !14
  %49 = add nsw i32 %48, 1
  %50 = load ptr, ptr %47, align 8, !tbaa !103
  %51 = getelementptr inbounds ptr, ptr %50, i64 2
  %52 = load ptr, ptr %51, align 8
  %53 = call noundef i32 %52(ptr noundef nonnull align 8 dereferenceable(8) %47, i32 noundef %49)
  store i32 %53, ptr %13, align 4, !tbaa !14
  %54 = load i32, ptr %11, align 4, !tbaa !14
  %55 = load i32, ptr %13, align 4, !tbaa !14
  %56 = icmp eq i32 %54, %55
  br i1 %56, label %57, label %59

57:                                               ; preds = %46
  %58 = load i32, ptr %11, align 4, !tbaa !14
  store i32 %58, ptr %5, align 4
  store i32 1, ptr %12, align 4
  br label %68

59:                                               ; preds = %46
  %60 = load ptr, ptr %7, align 8, !tbaa !101
  %61 = load i32, ptr %13, align 4, !tbaa !14
  %62 = load i32, ptr %11, align 4, !tbaa !14
  %63 = sub nsw i32 %61, %62
  %64 = call noundef zeroext i1 @_ZN6icu_776number4impl15DecimalQuantity15adjustMagnitudeEi(ptr noundef nonnull align 8 dereferenceable(66) %60, i32 noundef %63)
  %65 = load ptr, ptr %7, align 8, !tbaa !101
  %66 = load ptr, ptr %9, align 8, !tbaa !22
  call void @_ZNK6icu_776number4impl12RoundingImpl5applyERNS1_15DecimalQuantityER10UErrorCode(ptr noundef nonnull align 8 dereferenceable(37) %14, ptr noundef nonnull align 8 dereferenceable(66) %65, ptr noundef nonnull align 4 dereferenceable(4) %66)
  %67 = load i32, ptr %13, align 4, !tbaa !14
  store i32 %67, ptr %5, align 4
  store i32 1, ptr %12, align 4
  br label %68

68:                                               ; preds = %59, %57
  call void @llvm.lifetime.end.p0(i64 4, ptr %13) #13
  br label %69

69:                                               ; preds = %68, %44, %35
  call void @llvm.lifetime.end.p0(i64 4, ptr %11) #13
  call void @llvm.lifetime.end.p0(i64 4, ptr %10) #13
  %70 = load i32, ptr %5, align 4
  ret i32 %70
}