; Function Attrs: mustprogress uwtable
define noundef i32 @_ZN6icu_776number4impl12RoundingImpl24chooseMultiplierAndApplyERNS1_15DecimalQuantityERKNS1_18MultiplierProducerER10UErrorCode(ptr noundef nonnull readonly align 8 captures(none) dereferenceable(37) %0, ptr noundef nonnull align 8 dereferenceable(66) %1, ptr noundef nonnull align 8 dereferenceable(8) %2, ptr noundef nonnull align 4 dereferenceable(4) %3) local_unnamed_addr #1 align 2 {
  %5 = tail call noundef i32 @_ZNK6icu_776number4impl15DecimalQuantity12getMagnitudeEv(ptr noundef nonnull align 8 dereferenceable(66) %1)
  %6 = load ptr, ptr %2, align 8, !tbaa !86
  %7 = getelementptr inbounds nuw i8, ptr %6, i64 16
  %8 = load ptr, ptr %7, align 8
  %9 = tail call noundef i32 %8(ptr noundef nonnull align 8 dereferenceable(8) %2, i32 noundef %5)
  %10 = tail call noundef zeroext i1 @_ZN6icu_776number4impl15DecimalQuantity15adjustMagnitudeEi(ptr noundef nonnull align 8 dereferenceable(66) %1, i32 noundef %9)
  tail call void @_ZNK6icu_776number4impl12RoundingImpl5applyERNS1_15DecimalQuantityER10UErrorCode(ptr noundef nonnull align 8 dereferenceable(37) %0, ptr noundef nonnull align 8 dereferenceable(66) %1, ptr noundef nonnull align 4 dereferenceable(4) %3)
  %11 = tail call noundef zeroext i1 @_ZNK6icu_776number4impl15DecimalQuantity9isZeroishEv(ptr noundef nonnull align 8 dereferenceable(66) %1)
  %12 = load i32, ptr %3, align 4
  %13 = icmp sgt i32 %12, 0
  %or.cond.not = select i1 %11, i1 true, i1 %13
  br i1 %or.cond.not, label %28, label %14

14:                                               ; preds = %4
  %15 = tail call noundef i32 @_ZNK6icu_776number4impl15DecimalQuantity12getMagnitudeEv(ptr noundef nonnull align 8 dereferenceable(66) %1)
  %16 = add nsw i32 %9, %5
  %17 = icmp eq i32 %15, %16
  br i1 %17, label %28, label %18

18:                                               ; preds = %14
  %19 = add nsw i32 %5, 1
  %20 = load ptr, ptr %2, align 8, !tbaa !86
  %21 = getelementptr inbounds nuw i8, ptr %20, i64 16
  %22 = load ptr, ptr %21, align 8
  %23 = tail call noundef i32 %22(ptr noundef nonnull align 8 dereferenceable(8) %2, i32 noundef %19)
  %24 = icmp eq i32 %9, %23
  br i1 %24, label %28, label %25

25:                                               ; preds = %18
  %26 = sub nsw i32 %23, %9
  %27 = tail call noundef zeroext i1 @_ZN6icu_776number4impl15DecimalQuantity15adjustMagnitudeEi(ptr noundef nonnull align 8 dereferenceable(66) %1, i32 noundef %26)
  tail call void @_ZNK6icu_776number4impl12RoundingImpl5applyERNS1_15DecimalQuantityER10UErrorCode(ptr noundef nonnull align 8 dereferenceable(37) %0, ptr noundef nonnull align 8 dereferenceable(66) %1, ptr noundef nonnull align 4 dereferenceable(4) %3)
  br label %28

28:                                               ; preds = %25, %18, %14, %4
  %.0 = phi i32 [ %9, %4 ], [ %9, %14 ], [ %23, %25 ], [ %9, %18 ]
  ret i32 %.0
}